target datalayout = "e-m:e-p270:32:32-p271:32:32-p272:64:64-i64:64-i128:128-f80:128-n8:16:32:64-S128"
target triple = "x86_64-pc-linux-gnu"

%struct._amqp_message_decode_t = type { i32, ptr, ptr, ptr, ptr, ptr }

@.str.1429 = private unnamed_addr constant [22 x i8] c"Missing topic pattern\00", align 1
@.str.1430 = private unnamed_addr constant [25 x i8] c"Missing payload protocol\00", align 1
@.str.1431 = private unnamed_addr constant [18 x i8] c"Invalid regex: %s\00", align 1

; Function Attrs: null_pointer_is_valid sspstrong uwtable
define internal zeroext i1 @amqp_message_decode_update_cb(ptr noundef %0, ptr noundef %1) #0 {
  %3 = alloca i1, align 1
  %4 = alloca ptr, align 8
  %5 = alloca ptr, align 8
  %6 = alloca ptr, align 8
  %7 = alloca i32, align 4
  store ptr %0, ptr %4, align 8
  store ptr %1, ptr %5, align 8
  call void @llvm.lifetime.start.p0(i64 8, ptr %6) #11
  %8 = load ptr, ptr %4, align 8
  store ptr %8, ptr %6, align 8
  %9 = load ptr, ptr %6, align 8
  %10 = getelementptr inbounds nuw %struct._amqp_message_decode_t, ptr %9, i32 0, i32 1
  %11 = load ptr, ptr %10, align 8
  %12 = icmp eq ptr %11, null
  br i1 %12, label %19, label %13

13:                                               ; preds = %2
  %14 = load ptr, ptr %6, align 8
  %15 = getelementptr inbounds nuw %struct._amqp_message_decode_t, ptr %14, i32 0, i32 1
  %16 = load ptr, ptr %15, align 8
  %17 = call i64 @strlen(ptr noundef %16) #12
  %18 = icmp eq i64 %17, 0
  br i1 %18, label %19, label %22

19:                                               ; preds = %13, %2
  %20 = call noalias ptr @g_strdup(ptr noundef @.str.1429)
  %21 = load ptr, ptr %5, align 8
  store ptr %20, ptr %21, align 8
  store i1 false, ptr %3, align 1
  store i32 1, ptr %7, align 4
  br label %60

22:                                               ; preds = %13
  %23 = load ptr, ptr %6, align 8
  %24 = getelementptr inbounds nuw %struct._amqp_message_decode_t, ptr %23, i32 0, i32 3
  %25 = load ptr, ptr %24, align 8
  %26 = icmp eq ptr %25, null
  br i1 %26, label %33, label %27

27:                                               ; preds = %22
  %28 = load ptr, ptr %6, align 8
  %29 = getelementptr inbounds nuw %struct._amqp_message_decode_t, ptr %28, i32 0, i32 3
  %30 = load ptr, ptr %29, align 8
  %31 = call i64 @strlen(ptr noundef %30) #12
  %32 = icmp eq i64 %31, 0
  br i1 %32, label %33, label %36

33:                                               ; preds = %27, %22
  %34 = call noalias ptr @g_strdup(ptr noundef @.str.1430)
  %35 = load ptr, ptr %5, align 8
  store ptr %34, ptr %35, align 8
  store i1 false, ptr %3, align 1
  store i32 1, ptr %7, align 4
  br label %60

36:                                               ; preds = %27
  %37 = load ptr, ptr %6, align 8
  %38 = getelementptr inbounds nuw %struct._amqp_message_decode_t, ptr %37, i32 0, i32 0
  %39 = load i32, ptr %38, align 8
  %40 = icmp eq i32 %39, 4
  br i1 %40, label %41, label %59

41:                                               ; preds = %36
  %42 = load ptr, ptr %6, align 8
  %43 = getelementptr inbounds nuw %struct._amqp_message_decode_t, ptr %42, i32 0, i32 1
  %44 = load ptr, ptr %43, align 8
  %45 = call ptr @g_regex_new(ptr noundef %44, i32 noundef 8192, i32 noundef 0, ptr noundef null)
  %46 = load ptr, ptr %6, align 8
  %47 = getelementptr inbounds nuw %struct._amqp_message_decode_t, ptr %46, i32 0, i32 2
  store ptr %45, ptr %47, align 8
  %48 = load ptr, ptr %6, align 8
  %49 = getelementptr inbounds nuw %struct._amqp_message_decode_t, ptr %48, i32 0, i32 2
  %50 = load ptr, ptr %49, align 8
  %51 = icmp ne ptr %50, null
  br i1 %51, label %58, label %52

52:                                               ; preds = %41
  %53 = load ptr, ptr %6, align 8
  %54 = getelementptr inbounds nuw %struct._amqp_message_decode_t, ptr %53, i32 0, i32 1
  %55 = load ptr, ptr %54, align 8
  %56 = call noalias ptr (ptr, ...) @g_strdup_printf(ptr noundef @.str.1431, ptr noundef %55)
  %57 = load ptr, ptr %5, align 8
  store ptr %56, ptr %57, align 8
  store i1 false, ptr %3, align 1
  store i32 1, ptr %7, align 4
  br label %60

58:                                               ; preds = %41
  br label %59

59:                                               ; preds = %58, %36
  store i1 true, ptr %3, align 1
  store i32 1, ptr %7, align 4
  br label %60

60:                                               ; preds = %59, %52, %33, %19
  call void @llvm.lifetime.end.p0(i64 8, ptr %6) #11
  %61 = load i1, ptr %3, align 1
  ret i1 %61
}