; Function Attrs: null_pointer_is_valid sspstrong uwtable
define internal noundef zeroext i1 @amqp_message_decode_update_cb(ptr noundef captures(none) %0, ptr noundef writeonly captures(none) %1) #0 {
  %3 = getelementptr inbounds nuw i8, ptr %0, i64 8
  %4 = load ptr, ptr %3, align 8
  %5 = icmp eq ptr %4, null
  br i1 %5, label %8, label %6

6:                                                ; preds = %2
  %char0 = load i8, ptr %4, align 1
  %7 = icmp eq i8 %char0, 0
  br i1 %7, label %8, label %10

8:                                                ; preds = %6, %2
  %9 = tail call noalias ptr @g_strdup(ptr noundef nonnull @.str.1429)
  br label %.sink.split

10:                                               ; preds = %6
  %11 = getelementptr inbounds nuw i8, ptr %0, i64 24
  %12 = load ptr, ptr %11, align 8
  %13 = icmp eq ptr %12, null
  br i1 %13, label %16, label %14

14:                                               ; preds = %10
  %char016 = load i8, ptr %12, align 1
  %15 = icmp eq i8 %char016, 0
  br i1 %15, label %16, label %18

16:                                               ; preds = %14, %10
  %17 = tail call noalias ptr @g_strdup(ptr noundef nonnull @.str.1430)
  br label %.sink.split

18:                                               ; preds = %14
  %19 = load i32, ptr %0, align 8
  %20 = icmp eq i32 %19, 4
  br i1 %20, label %21, label %27

21:                                               ; preds = %18
  %22 = tail call ptr @g_regex_new(ptr noundef nonnull %4, i32 noundef 8192, i32 noundef 0, ptr noundef null)
  %23 = getelementptr inbounds nuw i8, ptr %0, i64 16
  store ptr %22, ptr %23, align 8
  %.not = icmp eq ptr %22, null
  br i1 %.not, label %24, label %27

24:                                               ; preds = %21
  %25 = load ptr, ptr %3, align 8
  %26 = tail call noalias ptr (ptr, ...) @g_strdup_printf(ptr noundef nonnull @.str.1431, ptr noundef %25)
  br label %.sink.split

.sink.split:                                      ; preds = %8, %16, %24
  %.sink = phi ptr [ %26, %24 ], [ %17, %16 ], [ %9, %8 ]
  store ptr %.sink, ptr %1, align 8
  br label %27

27:                                               ; preds = %.sink.split, %18, %21
  %.0 = phi i1 [ true, %21 ], [ true, %18 ], [ false, %.sink.split ]
  ret i1 %.0
}